target datalayout = "e-m:e-p270:32:32-p271:32:32-p272:64:64-i64:64-i128:128-f80:128-n8:16:32:64-S128"
target triple = "x86_64-pc-linux-gnu"

%struct.XLogRecoveryCtlData = type { i8, i8, %struct.Latch, i64, i64, i32, i64, i32, i64, i64, i32, %struct.ConditionVariable, i8 }
%struct.Latch = type { i32, i32, i8, i32 }
%struct.ConditionVariable = type { i8, %struct.proclist_head }
%struct.proclist_head = type { i32, i32 }

@XLogRecoveryCtl = internal global ptr null, align 8
@.str.6 = private unnamed_addr constant [15 x i8] c"xlogrecovery.c\00", align 1
@__func__.GetRecoveryPauseState = private unnamed_addr constant [22 x i8] c"GetRecoveryPauseState\00", align 1
@LocalPromoteIsTriggered = internal global i8 0, align 1
@LocalHotStandbyActive = internal global i8 0, align 1
@.str.63 = private unnamed_addr constant [20 x i8] c"recovery has paused\00", align 1
@.str.149 = private unnamed_addr constant [31 x i8] c"pausing at the end of recovery\00", align 1
@.str.150 = private unnamed_addr constant [43 x i8] c"Execute pg_wal_replay_resume() to promote.\00", align 1
@__func__.recoveryPausesHere = private unnamed_addr constant [19 x i8] c"recoveryPausesHere\00", align 1
@.str.151 = private unnamed_addr constant [44 x i8] c"Execute pg_wal_replay_resume() to continue.\00", align 1
@__func__.ConfirmRecoveryPaused = private unnamed_addr constant [22 x i8] c"ConfirmRecoveryPaused\00", align 1

; Function Attrs: inlinehint nounwind uwtable
define internal i32 @tas(ptr noundef %0) #7 {
  %2 = alloca ptr, align 8
  %3 = alloca i8, align 1
  store ptr %0, ptr %2, align 8
  call void @llvm.lifetime.start.p0(i64 1, ptr %3) #14
  store i8 1, ptr %3, align 1
  %4 = load i8, ptr %3, align 1
  %5 = load ptr, ptr %2, align 8
  %6 = call i8 asm sideeffect "\09lock\09\09\09\0A\09xchgb\09$0,$1\09\0A", "=q,=*m,0,*m,~{memory},~{cc},~{dirflag},~{fpsr},~{flags}"(ptr elementtype(i8) %5, i8 %4, ptr elementtype(i8) %5) #14, !srcloc !13
  store i8 %6, ptr %3, align 1
  %7 = load i8, ptr %3, align 1
  %8 = zext i8 %7 to i32
  call void @llvm.lifetime.end.p0(i64 1, ptr %3) #14
  ret i32 %8
}

; Function Attrs: nounwind uwtable
define internal void @ConfirmRecoveryPaused() #0 {
  %1 = load ptr, ptr @XLogRecoveryCtl, align 8
  %2 = getelementptr inbounds nuw %struct.XLogRecoveryCtlData, ptr %1, i32 0, i32 12
  %3 = call i32 @tas(ptr noundef %2)
  %4 = icmp ne i32 %3, 0
  br i1 %4, label %5, label %9

5:                                                ; preds = %0
  %6 = load ptr, ptr @XLogRecoveryCtl, align 8
  %7 = getelementptr inbounds nuw %struct.XLogRecoveryCtlData, ptr %6, i32 0, i32 12
  %8 = call i32 @s_lock(ptr noundef %7, ptr noundef @.str.6, i32 noundef 3116, ptr noundef @__func__.ConfirmRecoveryPaused)
  br label %10

9:                                                ; preds = %0
  br label %10

10:                                               ; preds = %9, %5
  %11 = load ptr, ptr @XLogRecoveryCtl, align 8
  %12 = getelementptr inbounds nuw %struct.XLogRecoveryCtlData, ptr %11, i32 0, i32 10
  %13 = load i32, ptr %12, align 8
  %14 = icmp eq i32 %13, 1
  br i1 %14, label %15, label %18

15:                                               ; preds = %10
  %16 = load ptr, ptr @XLogRecoveryCtl, align 8
  %17 = getelementptr inbounds nuw %struct.XLogRecoveryCtlData, ptr %16, i32 0, i32 10
  store i32 2, ptr %17, align 8
  br label %18

18:                                               ; preds = %15, %10
  br label %19

19:                                               ; preds = %18
  call void asm sideeffect "", "~{memory},~{dirflag},~{fpsr},~{flags}"() #14, !srcloc !27
  %20 = load ptr, ptr @XLogRecoveryCtl, align 8
  %21 = getelementptr inbounds nuw %struct.XLogRecoveryCtlData, ptr %20, i32 0, i32 12
  store i8 0, ptr %21, align 8
  br label %22

22:                                               ; preds = %19
  ret void
}

; Function Attrs: nounwind uwtable
define dso_local i32 @GetRecoveryPauseState() #0 {
  %1 = alloca i32, align 4
  call void @llvm.lifetime.start.p0(i64 4, ptr %1) #14
  %2 = load ptr, ptr @XLogRecoveryCtl, align 8
  %3 = getelementptr inbounds nuw %struct.XLogRecoveryCtlData, ptr %2, i32 0, i32 12
  %4 = call i32 @tas(ptr noundef %3)
  %5 = icmp ne i32 %4, 0
  br i1 %5, label %6, label %10

6:                                                ; preds = %0
  %7 = load ptr, ptr @XLogRecoveryCtl, align 8
  %8 = getelementptr inbounds nuw %struct.XLogRecoveryCtlData, ptr %7, i32 0, i32 12
  %9 = call i32 @s_lock(ptr noundef %8, ptr noundef @.str.6, i32 noundef 3077, ptr noundef @__func__.GetRecoveryPauseState)
  br label %11

10:                                               ; preds = %0
  br label %11

11:                                               ; preds = %10, %6
  %12 = load ptr, ptr @XLogRecoveryCtl, align 8
  %13 = getelementptr inbounds nuw %struct.XLogRecoveryCtlData, ptr %12, i32 0, i32 10
  %14 = load i32, ptr %13, align 8
  store i32 %14, ptr %1, align 4
  br label %15

15:                                               ; preds = %11
  call void asm sideeffect "", "~{memory},~{dirflag},~{fpsr},~{flags}"() #14, !srcloc !20
  %16 = load ptr, ptr @XLogRecoveryCtl, align 8
  %17 = getelementptr inbounds nuw %struct.XLogRecoveryCtlData, ptr %16, i32 0, i32 12
  store i8 0, ptr %17, align 8
  br label %18

18:                                               ; preds = %15
  br label %19

19:                                               ; preds = %18
  %20 = load i32, ptr %1, align 4
  call void @llvm.lifetime.end.p0(i64 4, ptr %1) #14
  ret i32 %20
}

; Function Attrs: nounwind uwtable
define internal void @recoveryPausesHere(i1 noundef zeroext %0) #0 {
  %2 = alloca i8, align 1
  %3 = zext i1 %0 to i8
  store i8 %3, ptr %2, align 1
  %4 = load i8, ptr @LocalHotStandbyActive, align 1, !range !4, !noundef !5
  %5 = trunc i8 %4 to i1
  br i1 %5, label %7, label %6

6:                                                ; preds = %1
  br label %49

7:                                                ; preds = %1
  %8 = load i8, ptr @LocalPromoteIsTriggered, align 1, !range !4, !noundef !5
  %9 = trunc i8 %8 to i1
  br i1 %9, label %10, label %11

10:                                               ; preds = %7
  br label %49

11:                                               ; preds = %7
  %12 = load i8, ptr %2, align 1, !range !4, !noundef !5
  %13 = trunc i8 %12 to i1
  br i1 %13, label %14, label %25

14:                                               ; preds = %11
  br label %15

15:                                               ; preds = %14
  br i1 false, label %16, label %18

16:                                               ; preds = %15
  %17 = call zeroext i1 @errstart_cold(i32 noundef 15, ptr noundef null) #15
  br i1 %17, label %20, label %23

18:                                               ; preds = %15
  %19 = call zeroext i1 @errstart(i32 noundef 15, ptr noundef null)
  br i1 %19, label %20, label %23

20:                                               ; preds = %18, %16
  %21 = call i32 (ptr, ...) @errmsg(ptr noundef @.str.149)
  %22 = call i32 (ptr, ...) @errhint(ptr noundef @.str.150)
  call void @errfinish(ptr noundef @.str.6, i32 noundef 2941, ptr noundef @__func__.recoveryPausesHere)
  br label %23

23:                                               ; preds = %20, %18, %16
  br label %24

24:                                               ; preds = %23
  br label %36

25:                                               ; preds = %11
  br label %26

26:                                               ; preds = %25
  br i1 false, label %27, label %29

27:                                               ; preds = %26
  %28 = call zeroext i1 @errstart_cold(i32 noundef 15, ptr noundef null) #15
  br i1 %28, label %31, label %34

29:                                               ; preds = %26
  %30 = call zeroext i1 @errstart(i32 noundef 15, ptr noundef null)
  br i1 %30, label %31, label %34

31:                                               ; preds = %29, %27
  %32 = call i32 (ptr, ...) @errmsg(ptr noundef @.str.63)
  %33 = call i32 (ptr, ...) @errhint(ptr noundef @.str.151)
  call void @errfinish(ptr noundef @.str.6, i32 noundef 2945, ptr noundef @__func__.recoveryPausesHere)
  br label %34

34:                                               ; preds = %31, %29, %27
  br label %35

35:                                               ; preds = %34
  br label %36

36:                                               ; preds = %35, %24
  br label %37

37:                                               ; preds = %43, %36
  %38 = call i32 @GetRecoveryPauseState()
  %39 = icmp ne i32 %38, 0
  br i1 %39, label %40, label %47

40:                                               ; preds = %37
  call void @HandleStartupProcInterrupts()
  %41 = call zeroext i1 @CheckForStandbyTrigger()
  br i1 %41, label %42, label %43

42:                                               ; preds = %40
  br label %49

43:                                               ; preds = %40
  call void @ConfirmRecoveryPaused()
  %44 = load ptr, ptr @XLogRecoveryCtl, align 8
  %45 = getelementptr inbounds nuw %struct.XLogRecoveryCtlData, ptr %44, i32 0, i32 11
  %46 = call zeroext i1 @ConditionVariableTimedSleep(ptr noundef %45, i64 noundef 1000, i32 noundef 134217775)
  br label %37, !llvm.loop !15

47:                                               ; preds = %37
  %48 = call zeroext i1 @ConditionVariableCancelSleep()
  br label %49

49:                                               ; preds = %47, %42, %10, %6
  ret void
}