; Function Attrs: nounwind uwtable
define internal fastcc void @recoveryPausesHere(i1 noundef zeroext %0) unnamed_addr #2 {
  %2 = load i8, ptr @LocalHotStandbyActive, align 1, !range !4, !noundef !5
  %3 = trunc nuw i8 %2 to i1
  br i1 %3, label %4, label %.loopexit

4:                                                ; preds = %1
  %5 = load i8, ptr @LocalPromoteIsTriggered, align 1, !range !4, !noundef !5
  %6 = trunc nuw i8 %5 to i1
  br i1 %6, label %.loopexit, label %7

7:                                                ; preds = %4
  %8 = tail call zeroext i1 @errstart(i32 noundef 15, ptr noundef null) #23
  br i1 %8, label %.sink.split, label %.preheader

.sink.split:                                      ; preds = %7
  %. = select i1 %0, i32 2941, i32 2945
  %.str.150..str.151 = select i1 %0, ptr @.str.150, ptr @.str.151
  %.str.149..str.63 = select i1 %0, ptr @.str.149, ptr @.str.63
  %9 = tail call i32 (ptr, ...) @errmsg(ptr noundef nonnull %.str.149..str.63) #23
  %10 = tail call i32 (ptr, ...) @errhint(ptr noundef nonnull %.str.150..str.151) #23
  tail call void @errfinish(ptr noundef nonnull @.str.6, i32 noundef %., ptr noundef nonnull @__func__.recoveryPausesHere) #23
  br label %.preheader

.preheader:                                       ; preds = %7, %.sink.split
  br label %11

11:                                               ; preds = %.preheader, %ConfirmRecoveryPaused.exit
  %12 = load ptr, ptr @XLogRecoveryCtl, align 8
  %13 = getelementptr inbounds nuw i8, ptr %12, i64 96
  %14 = tail call i8 asm sideeffect "\09lock\09\09\09\0A\09xchgb\09$0,$1\09\0A", "=q,=*m,0,*m,~{memory},~{cc},~{dirflag},~{fpsr},~{flags}"(ptr nonnull elementtype(i8) %13, i8 1, ptr nonnull elementtype(i8) %13) #23, !srcloc !10
  %.not.i = icmp eq i8 %14, 0
  br i1 %.not.i, label %GetRecoveryPauseState.exit, label %15

15:                                               ; preds = %11
  %16 = load ptr, ptr @XLogRecoveryCtl, align 8
  %17 = getelementptr inbounds nuw i8, ptr %16, i64 96
  %18 = tail call i32 @s_lock(ptr noundef nonnull %17, ptr noundef nonnull @.str.6, i32 noundef 3077, ptr noundef nonnull @__func__.GetRecoveryPauseState) #23
  br label %GetRecoveryPauseState.exit

GetRecoveryPauseState.exit:                       ; preds = %11, %15
  %19 = load ptr, ptr @XLogRecoveryCtl, align 8
  %20 = getelementptr inbounds nuw i8, ptr %19, i64 80
  %21 = load i32, ptr %20, align 8
  tail call void asm sideeffect "", "~{memory},~{dirflag},~{fpsr},~{flags}"() #23, !srcloc !29
  %22 = load ptr, ptr @XLogRecoveryCtl, align 8
  %23 = getelementptr inbounds nuw i8, ptr %22, i64 96
  store i8 0, ptr %23, align 8
  %.not = icmp eq i32 %21, 0
  br i1 %.not, label %44, label %24

24:                                               ; preds = %GetRecoveryPauseState.exit
  tail call void @HandleStartupProcInterrupts() #23
  %25 = tail call fastcc zeroext i1 @CheckForStandbyTrigger()
  br i1 %25, label %.loopexit, label %26

26:                                               ; preds = %24
  %27 = load ptr, ptr @XLogRecoveryCtl, align 8
  %28 = getelementptr inbounds nuw i8, ptr %27, i64 96
  %29 = tail call i8 asm sideeffect "\09lock\09\09\09\0A\09xchgb\09$0,$1\09\0A", "=q,=*m,0,*m,~{memory},~{cc},~{dirflag},~{fpsr},~{flags}"(ptr nonnull elementtype(i8) %28, i8 1, ptr nonnull elementtype(i8) %28) #23, !srcloc !10
  %.not.i1 = icmp eq i8 %29, 0
  br i1 %.not.i1, label %34, label %30

30:                                               ; preds = %26
  %31 = load ptr, ptr @XLogRecoveryCtl, align 8
  %32 = getelementptr inbounds nuw i8, ptr %31, i64 96
  %33 = tail call i32 @s_lock(ptr noundef nonnull %32, ptr noundef nonnull @.str.6, i32 noundef 3116, ptr noundef nonnull @__func__.ConfirmRecoveryPaused) #23
  br label %34

34:                                               ; preds = %30, %26
  %35 = load ptr, ptr @XLogRecoveryCtl, align 8
  %36 = getelementptr inbounds nuw i8, ptr %35, i64 80
  %37 = load i32, ptr %36, align 8
  %38 = icmp eq i32 %37, 1
  br i1 %38, label %39, label %ConfirmRecoveryPaused.exit

39:                                               ; preds = %34
  store i32 2, ptr %36, align 8
  br label %ConfirmRecoveryPaused.exit

ConfirmRecoveryPaused.exit:                       ; preds = %34, %39
  tail call void asm sideeffect "", "~{memory},~{dirflag},~{fpsr},~{flags}"() #23, !srcloc !30
  %40 = load ptr, ptr @XLogRecoveryCtl, align 8
  %41 = getelementptr inbounds nuw i8, ptr %40, i64 96
  store i8 0, ptr %41, align 8
  %42 = getelementptr inbounds nuw i8, ptr %40, i64 84
  %43 = tail call zeroext i1 @ConditionVariableTimedSleep(ptr noundef nonnull %42, i64 noundef 1000, i32 noundef 134217775) #23
  br label %11, !llvm.loop !31

44:                                               ; preds = %GetRecoveryPauseState.exit
  %45 = tail call zeroext i1 @ConditionVariableCancelSleep() #23
  br label %.loopexit

.loopexit:                                        ; preds = %24, %4, %1, %44
  ret void
}